target datalayout = "e-m:e-p270:32:32-p271:32:32-p272:64:64-i64:64-i128:128-f80:128-n8:16:32:64-S128"
target triple = "x86_64-pc-linux-gnu"

%class.FakeRttiSupport = type <{ i64, i32, [4 x i8] }>
%class.BarrierSetNMethod = type <{ ptr, i32, [4 x i8] }>

@_ZTV18XBarrierSetNMethod = external unnamed_addr constant { [5 x ptr] }, align 8
@_ZTV17BarrierSetNMethod = external unnamed_addr constant { [5 x ptr] }, align 8
@_ZTV21XBarrierSetStackChunk = external unnamed_addr constant { [6 x ptr] }, align 8
@_ZTV20BarrierSetStackChunk = external unnamed_addr constant { [6 x ptr] }, align 8
@_ZTV20XBarrierSetAssembler = external unnamed_addr constant { [17 x ptr] }, align 8
@_ZTV19BarrierSetAssembler = external unnamed_addr constant { [17 x ptr] }, align 8
@_ZTV13XBarrierSetC2 = external unnamed_addr constant { [46 x ptr] }, align 8
@_ZTV12BarrierSetC2 = external unnamed_addr constant { [46 x ptr] }, align 8

; Function Attrs: mustprogress nounwind uwtable
define linkonce_odr hidden void @_ZN19BarrierSetAssemblerC2Ev(ptr noundef nonnull align 8 dereferenceable(8) %0) unnamed_addr #1 comdat align 2 {
  %2 = alloca ptr, align 8
  store ptr %0, ptr %2, align 8
  %3 = load ptr, ptr %2, align 8
  store ptr getelementptr inbounds inrange(-16, 120) ({ [17 x ptr] }, ptr @_ZTV19BarrierSetAssembler, i32 0, i32 0, i32 2), ptr %3, align 8
  ret void
}

; Function Attrs: mustprogress nounwind uwtable
define linkonce_odr hidden noundef i32 @_ZN15FakeRttiSupportI10BarrierSetNS0_4NameEE12validate_tagES1_(i32 noundef %0) #1 comdat align 2 {
  %2 = alloca i32, align 4
  store i32 %0, ptr %2, align 4
  %3 = load i32, ptr %2, align 4
  ret i32 %3
}

; Function Attrs: mustprogress nounwind uwtable
define linkonce_odr hidden void @_ZN12BarrierSetC2C2Ev(ptr noundef nonnull align 8 dereferenceable(8) %0) unnamed_addr #1 comdat align 2 {
  %2 = alloca ptr, align 8
  store ptr %0, ptr %2, align 8
  %3 = load ptr, ptr %2, align 8
  store ptr getelementptr inbounds inrange(-16, 352) ({ [46 x ptr] }, ptr @_ZTV12BarrierSetC2, i32 0, i32 0, i32 2), ptr %3, align 8
  ret void
}

; Function Attrs: mustprogress nounwind uwtable
define linkonce_odr hidden void @_ZN24XBarrierSetAssemblerBaseC2Ev(ptr noundef nonnull align 8 dereferenceable(8) %0) unnamed_addr #1 comdat align 2 {
  %2 = alloca ptr, align 8
  store ptr %0, ptr %2, align 8
  %3 = load ptr, ptr %2, align 8
  call void @_ZN19BarrierSetAssemblerC2Ev(ptr noundef nonnull align 8 dereferenceable(8) %3) #4
  store ptr getelementptr inbounds inrange(-16, 120) ({ [17 x ptr] }, ptr @_ZTV24XBarrierSetAssemblerBase, i32 0, i32 0, i32 2), ptr %3, align 8
  ret void
}

; Function Attrs: mustprogress nounwind uwtable
define linkonce_odr hidden noundef i64 @_ZN15FakeRttiSupportI10BarrierSetNS0_4NameEE7tag_bitES1_(i32 noundef %0) #1 comdat align 2 {
  %2 = alloca i32, align 4
  store i32 %0, ptr %2, align 4
  %3 = load i32, ptr %2, align 4
  %4 = call noundef i32 @_ZN15FakeRttiSupportI10BarrierSetNS0_4NameEE12validate_tagES1_(i32 noundef %3)
  %5 = zext i32 %4 to i64
  %6 = shl i64 1, %5
  ret i64 %6
}

; Function Attrs: mustprogress nounwind uwtable
define linkonce_odr hidden void @_ZN20BarrierSetStackChunkC2Ev(ptr noundef nonnull align 8 dereferenceable(8) %0) unnamed_addr #1 comdat align 2 {
  %2 = alloca ptr, align 8
  store ptr %0, ptr %2, align 8
  %3 = load ptr, ptr %2, align 8
  store ptr getelementptr inbounds inrange(-16, 32) ({ [6 x ptr] }, ptr @_ZTV20BarrierSetStackChunk, i32 0, i32 0, i32 2), ptr %3, align 8
  ret void
}

; Function Attrs: mustprogress nounwind uwtable
define linkonce_odr hidden void @_ZN17BarrierSetNMethodC2Ev(ptr noundef nonnull align 8 dereferenceable(12) %0) unnamed_addr #1 comdat align 2 {
  %2 = alloca ptr, align 8
  store ptr %0, ptr %2, align 8
  %3 = load ptr, ptr %2, align 8
  store ptr getelementptr inbounds inrange(-16, 24) ({ [5 x ptr] }, ptr @_ZTV17BarrierSetNMethod, i32 0, i32 0, i32 2), ptr %3, align 8
  %4 = getelementptr inbounds %class.BarrierSetNMethod, ptr %3, i32 0, i32 1
  store i32 1, ptr %4, align 8
  ret void
}

; Function Attrs: mustprogress nounwind uwtable
define linkonce_odr hidden void @_ZN13XBarrierSetC2C2Ev(ptr noundef nonnull align 8 dereferenceable(8) %0) unnamed_addr #1 comdat align 2 {
  %2 = alloca ptr, align 8
  store ptr %0, ptr %2, align 8
  %3 = load ptr, ptr %2, align 8
  call void @_ZN12BarrierSetC2C2Ev(ptr noundef nonnull align 8 dereferenceable(8) %3) #4
  store ptr getelementptr inbounds inrange(-16, 352) ({ [46 x ptr] }, ptr @_ZTV13XBarrierSetC2, i32 0, i32 0, i32 2), ptr %3, align 8
  ret void
}

; Function Attrs: mustprogress nounwind uwtable
define linkonce_odr hidden void @_ZN20XBarrierSetAssemblerC2Ev(ptr noundef nonnull align 8 dereferenceable(8) %0) unnamed_addr #1 comdat align 2 {
  %2 = alloca ptr, align 8
  store ptr %0, ptr %2, align 8
  %3 = load ptr, ptr %2, align 8
  call void @_ZN24XBarrierSetAssemblerBaseC2Ev(ptr noundef nonnull align 8 dereferenceable(8) %3) #4
  store ptr getelementptr inbounds inrange(-16, 120) ({ [17 x ptr] }, ptr @_ZTV20XBarrierSetAssembler, i32 0, i32 0, i32 2), ptr %3, align 8
  ret void
}

; Function Attrs: mustprogress nounwind uwtable
define linkonce_odr hidden void @_ZN15FakeRttiSupportI10BarrierSetNS0_4NameEEC2ES1_(ptr noundef nonnull align 8 dereferenceable(12) %0, i32 noundef %1) unnamed_addr #1 comdat align 2 {
  %3 = alloca ptr, align 8
  %4 = alloca i32, align 4
  store ptr %0, ptr %3, align 8
  store i32 %1, ptr %4, align 4
  %5 = load ptr, ptr %3, align 8
  %6 = getelementptr inbounds %class.FakeRttiSupport, ptr %5, i32 0, i32 0
  %7 = load i32, ptr %4, align 4
  %8 = call noundef i64 @_ZN15FakeRttiSupportI10BarrierSetNS0_4NameEE7tag_bitES1_(i32 noundef %7)
  store i64 %8, ptr %6, align 8
  %9 = getelementptr inbounds %class.FakeRttiSupport, ptr %5, i32 0, i32 1
  %10 = load i32, ptr %4, align 4
  store i32 %10, ptr %9, align 8
  ret void
}

; Function Attrs: mustprogress nounwind uwtable
define linkonce_odr hidden void @_ZN21XBarrierSetStackChunkC2Ev(ptr noundef nonnull align 8 dereferenceable(8) %0) unnamed_addr #1 comdat align 2 {
  %2 = alloca ptr, align 8
  store ptr %0, ptr %2, align 8
  %3 = load ptr, ptr %2, align 8
  call void @_ZN20BarrierSetStackChunkC2Ev(ptr noundef nonnull align 8 dereferenceable(8) %3) #4
  store ptr getelementptr inbounds inrange(-16, 32) ({ [6 x ptr] }, ptr @_ZTV21XBarrierSetStackChunk, i32 0, i32 0, i32 2), ptr %3, align 8
  ret void
}

; Function Attrs: mustprogress nounwind uwtable
define linkonce_odr hidden void @_ZN18XBarrierSetNMethodC2Ev(ptr noundef nonnull align 8 dereferenceable(12) %0) unnamed_addr #1 comdat align 2 {
  %2 = alloca ptr, align 8
  store ptr %0, ptr %2, align 8
  %3 = load ptr, ptr %2, align 8
  call void @_ZN17BarrierSetNMethodC2Ev(ptr noundef nonnull align 8 dereferenceable(12) %3)
  store ptr getelementptr inbounds inrange(-16, 24) ({ [5 x ptr] }, ptr @_ZTV18XBarrierSetNMethod, i32 0, i32 0, i32 2), ptr %3, align 8
  ret void
}

; Function Attrs: mustprogress nounwind uwtable
define linkonce_odr hidden noundef ptr @_ZN10BarrierSet19make_barrier_set_c2I13XBarrierSetC2EEP12BarrierSetC2v() #1 comdat align 2 {
  %1 = alloca i64, align 8
  %2 = alloca i8, align 1
  %3 = alloca i64, align 8
  store i64 8, ptr %3, align 8
  %4 = load i64, ptr %3, align 8
  store i64 %4, ptr %1, align 8
  store i8 5, ptr %2, align 1
  %5 = load i64, ptr %1, align 8
  %6 = load i8, ptr %2, align 1
  %7 = call noundef ptr @_Z12AllocateHeapm8MEMFLAGSN17AllocFailStrategy13AllocFailEnumE(i64 noundef %5, i8 noundef zeroext %6, i32 noundef 0) #4
  call void @llvm.memset.p0.i64(ptr align 8 %7, i8 0, i64 8, i1 false)
  call void @_ZN13XBarrierSetC2C2Ev(ptr noundef nonnull align 8 dereferenceable(8) %7) #4
  ret ptr %7
}

; Function Attrs: mustprogress nounwind uwtable
define linkonce_odr hidden noundef ptr @_ZN10BarrierSet19make_barrier_set_c1I13XBarrierSetC1EEP12BarrierSetC1v() #1 comdat align 2 {
  %1 = alloca i64, align 8
  %2 = alloca i8, align 1
  %3 = alloca i64, align 8
  store i64 24, ptr %3, align 8
  %4 = load i64, ptr %3, align 8
  store i64 %4, ptr %1, align 8
  store i8 5, ptr %2, align 1
  %5 = load i64, ptr %1, align 8
  %6 = load i8, ptr %2, align 1
  %7 = call noundef ptr @_Z12AllocateHeapm8MEMFLAGSN17AllocFailStrategy13AllocFailEnumE(i64 noundef %5, i8 noundef zeroext %6, i32 noundef 0) #4
  call void @_ZN13XBarrierSetC1C1Ev(ptr noundef nonnull align 8 dereferenceable(24) %7)
  ret ptr %7
}

; Function Attrs: mustprogress nounwind uwtable
define linkonce_odr hidden noundef ptr @_ZN10BarrierSet26make_barrier_set_assemblerI20XBarrierSetAssemblerEEP19BarrierSetAssemblerv() #1 comdat align 2 {
  %1 = alloca i64, align 8
  %2 = alloca i8, align 1
  %3 = alloca i64, align 8
  store i64 8, ptr %3, align 8
  %4 = load i64, ptr %3, align 8
  store i64 %4, ptr %1, align 8
  store i8 5, ptr %2, align 1
  %5 = load i64, ptr %1, align 8
  %6 = load i8, ptr %2, align 1
  %7 = call noundef ptr @_Z12AllocateHeapm8MEMFLAGSN17AllocFailStrategy13AllocFailEnumE(i64 noundef %5, i8 noundef zeroext %6, i32 noundef 0) #4
  call void @llvm.memset.p0.i64(ptr align 8 %7, i8 0, i64 8, i1 false)
  call void @_ZN20XBarrierSetAssemblerC2Ev(ptr noundef nonnull align 8 dereferenceable(8) %7) #4
  ret ptr %7
}

; Function Attrs: mustprogress nounwind uwtable
define hidden void @_ZN11XBarrierSetC2Ev(ptr noundef nonnull align 8 dereferenceable(64) %0) unnamed_addr #1 align 2 {
  %2 = alloca i64, align 8
  %3 = alloca i8, align 1
  %4 = alloca i64, align 8
  %5 = alloca i8, align 1
  %6 = alloca i64, align 8
  %7 = alloca i64, align 8
  %8 = alloca ptr, align 8
  %9 = alloca %class.FakeRttiSupport, align 8
  store ptr %0, ptr %8, align 8
  %10 = load ptr, ptr %8, align 8
  %11 = call noundef ptr @_ZN10BarrierSet26make_barrier_set_assemblerI20XBarrierSetAssemblerEEP19BarrierSetAssemblerv()
  %12 = call noundef ptr @_ZN10BarrierSet19make_barrier_set_c1I13XBarrierSetC1EEP12BarrierSetC1v()
  %13 = call noundef ptr @_ZN10BarrierSet19make_barrier_set_c2I13XBarrierSetC2EEP12BarrierSetC2v()
  store i64 16, ptr %6, align 8
  %14 = load i64, ptr %6, align 8
  store i64 %14, ptr %4, align 8
  store i8 5, ptr %5, align 1
  %15 = load i64, ptr %4, align 8
  %16 = load i8, ptr %5, align 1
  %17 = call noundef ptr @_Z12AllocateHeapm8MEMFLAGSN17AllocFailStrategy13AllocFailEnumE(i64 noundef %15, i8 noundef zeroext %16, i32 noundef 0) #4
  call void @llvm.memset.p0.i64(ptr align 8 %17, i8 0, i64 16, i1 false)
  call void @_ZN18XBarrierSetNMethodC2Ev(ptr noundef nonnull align 8 dereferenceable(12) %17)
  store i64 8, ptr %7, align 8
  %18 = load i64, ptr %7, align 8
  store i64 %18, ptr %2, align 8
  store i8 5, ptr %3, align 1
  %19 = load i64, ptr %2, align 8
  %20 = load i8, ptr %3, align 1
  %21 = call noundef ptr @_Z12AllocateHeapm8MEMFLAGSN17AllocFailStrategy13AllocFailEnumE(i64 noundef %19, i8 noundef zeroext %20, i32 noundef 0) #4
  call void @llvm.memset.p0.i64(ptr align 8 %21, i8 0, i64 8, i1 false)
  call void @_ZN21XBarrierSetStackChunkC2Ev(ptr noundef nonnull align 8 dereferenceable(8) %21) #4
  call void @_ZN15FakeRttiSupportI10BarrierSetNS0_4NameEEC2ES1_(ptr noundef nonnull align 8 dereferenceable(12) %9, i32 noundef 5)
  call void @_ZN10BarrierSetC2EP19BarrierSetAssemblerP12BarrierSetC1P12BarrierSetC2P17BarrierSetNMethodP20BarrierSetStackChunkRK15FakeRttiSupportIS_NS_4NameEE(ptr noundef nonnull align 8 dereferenceable(64) %10, ptr noundef %11, ptr noundef %12, ptr noundef %13, ptr noundef %17, ptr noundef %21, ptr noundef nonnull align 8 dereferenceable(12) %9)
  store ptr getelementptr inbounds inrange(-16, 56) ({ [9 x ptr] }, ptr @_ZTV11XBarrierSet, i32 0, i32 0, i32 2), ptr %10, align 8
  ret void
}