; Function Attrs: mustprogress nounwind uwtable
define hidden void @_ZN11XBarrierSetC2Ev(ptr noundef nonnull align 8 dereferenceable(64) %0) unnamed_addr #0 align 2 {
  %2 = alloca %class.FakeRttiSupport, align 8
  %3 = tail call noundef ptr @_Z12AllocateHeapm8MEMFLAGSN17AllocFailStrategy13AllocFailEnumE(i64 noundef 8, i8 noundef zeroext 5, i32 noundef 0) #5
  store ptr getelementptr inbounds inrange(-16, 120) (i8, ptr @_ZTV20XBarrierSetAssembler, i64 16), ptr %3, align 8
  %4 = tail call noundef ptr @_Z12AllocateHeapm8MEMFLAGSN17AllocFailStrategy13AllocFailEnumE(i64 noundef 24, i8 noundef zeroext 5, i32 noundef 0) #5
  tail call void @_ZN13XBarrierSetC1C1Ev(ptr noundef nonnull align 8 dereferenceable(24) %4) #5
  %5 = tail call noundef ptr @_Z12AllocateHeapm8MEMFLAGSN17AllocFailStrategy13AllocFailEnumE(i64 noundef 8, i8 noundef zeroext 5, i32 noundef 0) #5
  store ptr getelementptr inbounds inrange(-16, 352) (i8, ptr @_ZTV13XBarrierSetC2, i64 16), ptr %5, align 8
  %6 = tail call noundef ptr @_Z12AllocateHeapm8MEMFLAGSN17AllocFailStrategy13AllocFailEnumE(i64 noundef 16, i8 noundef zeroext 5, i32 noundef 0) #5
  %7 = getelementptr inbounds i8, ptr %6, i64 8
  store i64 0, ptr %7, align 8
  %8 = getelementptr inbounds i8, ptr %6, i64 8
  store i32 1, ptr %8, align 8
  store ptr getelementptr inbounds inrange(-16, 24) (i8, ptr @_ZTV18XBarrierSetNMethod, i64 16), ptr %6, align 8
  %9 = tail call noundef ptr @_Z12AllocateHeapm8MEMFLAGSN17AllocFailStrategy13AllocFailEnumE(i64 noundef 8, i8 noundef zeroext 5, i32 noundef 0) #5
  store ptr getelementptr inbounds inrange(-16, 32) (i8, ptr @_ZTV21XBarrierSetStackChunk, i64 16), ptr %9, align 8
  store i64 32, ptr %2, align 8
  %10 = getelementptr inbounds i8, ptr %2, i64 8
  store i32 5, ptr %10, align 8
  call void @_ZN10BarrierSetC2EP19BarrierSetAssemblerP12BarrierSetC1P12BarrierSetC2P17BarrierSetNMethodP20BarrierSetStackChunkRK15FakeRttiSupportIS_NS_4NameEE(ptr noundef nonnull align 8 dereferenceable(64) %0, ptr noundef nonnull %3, ptr noundef nonnull %4, ptr noundef nonnull %5, ptr noundef nonnull %6, ptr noundef nonnull %9, ptr noundef nonnull align 8 dereferenceable(12) %2) #5
  store ptr getelementptr inbounds inrange(-16, 56) (i8, ptr @_ZTV11XBarrierSet, i64 16), ptr %0, align 8
  ret void
}